; Function Attrs: mustprogress nounwind uwtable
define dso_local noundef i64 @_ZNK4llvm8DWARFDie11getDeclLineEv(ptr noundef nonnull align 8 dereferenceable(16) %0) local_unnamed_addr #0 align 2 {
  %2 = alloca %"class.std::optional", align 8
  %3 = alloca i16, align 2
  store i16 59, ptr %3, align 2
  call void @_ZNK4llvm8DWARFDie15findRecursivelyENS_8ArrayRefINS_5dwarf9AttributeEEE(ptr dead_on_unwind nonnull writable sret(%"class.std::optional") align 8 %2, ptr noundef nonnull align 8 dereferenceable(16) %0, ptr nonnull %3, i64 1)
  %4 = getelementptr inbounds nuw i8, ptr %2, i64 48
  %5 = load i8, ptr %4, align 8
  %6 = trunc i8 %5 to i1
  br i1 %6, label %7, label %_ZN4llvm5dwarf10toUnsignedERKSt8optionalINS_14DWARFFormValueEEm.exit

7:                                                ; preds = %1
  %8 = call { i64, i8 } @_ZNK4llvm14DWARFFormValue21getAsUnsignedConstantEv(ptr noundef nonnull align 8 dereferenceable(56) %2) #19
  %9 = extractvalue { i64, i8 } %8, 0
  %10 = extractvalue { i64, i8 } %8, 1
  %11 = trunc i8 %10 to i1
  %12 = select i1 %11, i64 %9, i64 0
  br label %_ZN4llvm5dwarf10toUnsignedERKSt8optionalINS_14DWARFFormValueEEm.exit

_ZN4llvm5dwarf10toUnsignedERKSt8optionalINS_14DWARFFormValueEEm.exit: ; preds = %1, %7
  %.sroa.2.0.i.i = phi i64 [ %12, %7 ], [ 0, %1 ]
  ret i64 %.sroa.2.0.i.i
}